target datalayout = "e-m:e-p270:32:32-p271:32:32-p272:64:64-i64:64-i128:128-f80:128-n8:16:32:64-S128"
target triple = "x86_64-pc-linux-gnu"

%struct.translation_ctx_st = type { ptr, i32, i32, ptr, i32, i32, ptr, i64, ptr, ptr, [50 x i8], ptr, ptr, i64 }
%struct.translation_st = type { i32, i32, i32, i32, i32, ptr, ptr, ptr, i32, ptr }
%struct.ossl_param_st = type { ptr, i32, ptr, i64, i64 }
%struct.evp_pkey_ctx_st = type { i32, ptr, ptr, ptr, ptr, %union.anon, %struct.anon.4, ptr, ptr, ptr, i32, i32, ptr, ptr, ptr, ptr, ptr, i8, ptr }
%union.anon = type { %struct.anon.0 }
%struct.anon.0 = type { ptr, ptr }
%struct.anon.4 = type { ptr, ptr, i64, i8 }

@.str = private unnamed_addr constant [46 x i8] c"../openssl/crypto/evp/ctrl_params_translate.c\00", align 1

; Function Attrs: nounwind uwtable
define internal i32 @cleanup_translation_ctx(i32 noundef %0, ptr noundef %1, ptr noundef %2) #0 {
  %4 = alloca i32, align 4
  %5 = alloca ptr, align 8
  %6 = alloca ptr, align 8
  store i32 %0, ptr %4, align 4, !tbaa !8
  store ptr %1, ptr %5, align 8, !tbaa !11
  store ptr %2, ptr %6, align 8, !tbaa !43
  %7 = load ptr, ptr %6, align 8, !tbaa !43
  %8 = getelementptr inbounds nuw %struct.translation_ctx_st, ptr %7, i32 0, i32 11
  %9 = load ptr, ptr %8, align 8, !tbaa !53
  %10 = icmp ne ptr %9, null
  br i1 %10, label %11, label %15

11:                                               ; preds = %3
  %12 = load ptr, ptr %6, align 8, !tbaa !43
  %13 = getelementptr inbounds nuw %struct.translation_ctx_st, ptr %12, i32 0, i32 11
  %14 = load ptr, ptr %13, align 8, !tbaa !53
  call void @CRYPTO_free(ptr noundef %14, ptr noundef @.str, i32 noundef 713)
  br label %15

15:                                               ; preds = %11, %3
  %16 = load ptr, ptr %6, align 8, !tbaa !43
  %17 = getelementptr inbounds nuw %struct.translation_ctx_st, ptr %16, i32 0, i32 11
  store ptr null, ptr %17, align 8, !tbaa !53
  ret i32 1
}

; Function Attrs: nounwind uwtable
define internal ptr @lookup_evp_pkey_ctx_translation(ptr noundef %0) #0 {
  %2 = alloca ptr, align 8
  store ptr %0, ptr %2, align 8, !tbaa !11
  %3 = load ptr, ptr %2, align 8, !tbaa !11
  %4 = call ptr @lookup_translation(ptr noundef %3, ptr noundef @evp_pkey_ctx_translations, i64 noundef 86)
  ret ptr %4
}

; Function Attrs: nounwind uwtable
define internal i32 @evp_pkey_ctx_setget_params_to_ctrl(ptr noundef %0, i32 noundef %1, ptr noundef %2) #0 {
  %4 = alloca i32, align 4
  %5 = alloca ptr, align 8
  %6 = alloca i32, align 4
  %7 = alloca ptr, align 8
  %8 = alloca i32, align 4
  %9 = alloca i32, align 4
  %10 = alloca %struct.translation_ctx_st, align 8
  %11 = alloca %struct.translation_st, align 8
  %12 = alloca ptr, align 8
  %13 = alloca ptr, align 8
  %14 = alloca i32, align 4
  %15 = alloca i32, align 4
  store ptr %0, ptr %5, align 8, !tbaa !3
  store i32 %1, ptr %6, align 4, !tbaa !8
  store ptr %2, ptr %7, align 8, !tbaa !57
  call void @llvm.lifetime.start.p0(i64 4, ptr %8) #9
  %16 = load ptr, ptr %5, align 8, !tbaa !3
  %17 = getelementptr inbounds nuw %struct.evp_pkey_ctx_st, ptr %16, i32 0, i32 11
  %18 = load i32, ptr %17, align 4, !tbaa !13
  store i32 %18, ptr %8, align 4, !tbaa !8
  call void @llvm.lifetime.start.p0(i64 4, ptr %9) #9
  %19 = load ptr, ptr %5, align 8, !tbaa !3
  %20 = getelementptr inbounds nuw %struct.evp_pkey_ctx_st, ptr %19, i32 0, i32 0
  %21 = load i32, ptr %20, align 8, !tbaa !45
  %22 = icmp eq i32 %21, 0
  br i1 %22, label %23, label %24

23:                                               ; preds = %3
  br label %28

24:                                               ; preds = %3
  %25 = load ptr, ptr %5, align 8, !tbaa !3
  %26 = getelementptr inbounds nuw %struct.evp_pkey_ctx_st, ptr %25, i32 0, i32 0
  %27 = load i32, ptr %26, align 8, !tbaa !45
  br label %28

28:                                               ; preds = %24, %23
  %29 = phi i32 [ -1, %23 ], [ %27, %24 ]
  store i32 %29, ptr %9, align 4, !tbaa !8
  br label %30

30:                                               ; preds = %116, %28
  %31 = load ptr, ptr %7, align 8, !tbaa !57
  %32 = icmp ne ptr %31, null
  br i1 %32, label %33, label %38

33:                                               ; preds = %30
  %34 = load ptr, ptr %7, align 8, !tbaa !57
  %35 = getelementptr inbounds nuw %struct.ossl_param_st, ptr %34, i32 0, i32 0
  %36 = load ptr, ptr %35, align 8, !tbaa !65
  %37 = icmp ne ptr %36, null
  br label %38

38:                                               ; preds = %33, %30
  %39 = phi i1 [ false, %30 ], [ %37, %33 ]
  br i1 %39, label %40, label %119

40:                                               ; preds = %38
  call void @llvm.lifetime.start.p0(i64 144, ptr %10) #9
  call void @llvm.memset.p0.i64(ptr align 8 %10, i8 0, i64 144, i1 false)
  call void @llvm.lifetime.start.p0(i64 64, ptr %11) #9
  call void @llvm.memset.p0.i64(ptr align 8 %11, i8 0, i64 64, i1 false)
  call void @llvm.lifetime.start.p0(i64 8, ptr %12) #9
  store ptr null, ptr %12, align 8, !tbaa !11
  call void @llvm.lifetime.start.p0(i64 8, ptr %13) #9
  store ptr @default_fixup_args, ptr %13, align 8, !tbaa !10
  call void @llvm.lifetime.start.p0(i64 4, ptr %14) #9
  %41 = load i32, ptr %6, align 4, !tbaa !8
  %42 = getelementptr inbounds nuw %struct.translation_st, ptr %11, i32 0, i32 0
  store i32 %41, ptr %42, align 8, !tbaa !34
  %43 = getelementptr inbounds nuw %struct.translation_ctx_st, ptr %10, i32 0, i32 1
  store i32 %41, ptr %43, align 8, !tbaa !35
  %44 = load i32, ptr %8, align 4, !tbaa !8
  %45 = getelementptr inbounds nuw %struct.translation_st, ptr %11, i32 0, i32 2
  store i32 %44, ptr %45, align 8, !tbaa !27
  %46 = getelementptr inbounds nuw %struct.translation_st, ptr %11, i32 0, i32 1
  store i32 %44, ptr %46, align 4, !tbaa !28
  %47 = load i32, ptr %9, align 4, !tbaa !8
  %48 = getelementptr inbounds nuw %struct.translation_st, ptr %11, i32 0, i32 3
  store i32 %47, ptr %48, align 4, !tbaa !29
  %49 = load ptr, ptr %7, align 8, !tbaa !57
  %50 = getelementptr inbounds nuw %struct.ossl_param_st, ptr %49, i32 0, i32 0
  %51 = load ptr, ptr %50, align 8, !tbaa !65
  %52 = getelementptr inbounds nuw %struct.translation_st, ptr %11, i32 0, i32 7
  store ptr %51, ptr %52, align 8, !tbaa !48
  %53 = call ptr @lookup_evp_pkey_ctx_translation(ptr noundef %11)
  store ptr %53, ptr %12, align 8, !tbaa !11
  %54 = load ptr, ptr %12, align 8, !tbaa !11
  %55 = icmp ne ptr %54, null
  br i1 %55, label %56, label %70

56:                                               ; preds = %40
  %57 = load ptr, ptr %12, align 8, !tbaa !11
  %58 = getelementptr inbounds nuw %struct.translation_st, ptr %57, i32 0, i32 9
  %59 = load ptr, ptr %58, align 8, !tbaa !33
  %60 = icmp ne ptr %59, null
  br i1 %60, label %61, label %65

61:                                               ; preds = %56
  %62 = load ptr, ptr %12, align 8, !tbaa !11
  %63 = getelementptr inbounds nuw %struct.translation_st, ptr %62, i32 0, i32 9
  %64 = load ptr, ptr %63, align 8, !tbaa !33
  store ptr %64, ptr %13, align 8, !tbaa !10
  br label %65

65:                                               ; preds = %61, %56
  %66 = load ptr, ptr %12, align 8, !tbaa !11
  %67 = getelementptr inbounds nuw %struct.translation_st, ptr %66, i32 0, i32 4
  %68 = load i32, ptr %67, align 8, !tbaa !25
  %69 = getelementptr inbounds nuw %struct.translation_ctx_st, ptr %10, i32 0, i32 2
  store i32 %68, ptr %69, align 4, !tbaa !38
  br label %70

70:                                               ; preds = %65, %40
  %71 = load ptr, ptr %5, align 8, !tbaa !3
  %72 = getelementptr inbounds nuw %struct.translation_ctx_st, ptr %10, i32 0, i32 0
  store ptr %71, ptr %72, align 8, !tbaa !41
  %73 = load ptr, ptr %7, align 8, !tbaa !57
  %74 = getelementptr inbounds nuw %struct.translation_ctx_st, ptr %10, i32 0, i32 8
  store ptr %73, ptr %74, align 8, !tbaa !42
  %75 = load ptr, ptr %13, align 8, !tbaa !10
  %76 = load ptr, ptr %12, align 8, !tbaa !11
  %77 = call i32 %75(i32 noundef 7, ptr noundef %76, ptr noundef %10)
  store i32 %77, ptr %14, align 4, !tbaa !8
  %78 = load i32, ptr %14, align 4, !tbaa !8
  %79 = icmp sgt i32 %78, 0
  br i1 %79, label %80, label %95

80:                                               ; preds = %70
  %81 = getelementptr inbounds nuw %struct.translation_ctx_st, ptr %10, i32 0, i32 1
  %82 = load i32, ptr %81, align 8, !tbaa !35
  %83 = icmp ne i32 %82, 0
  br i1 %83, label %84, label %95

84:                                               ; preds = %80
  %85 = load ptr, ptr %5, align 8, !tbaa !3
  %86 = load i32, ptr %8, align 4, !tbaa !8
  %87 = load i32, ptr %9, align 4, !tbaa !8
  %88 = getelementptr inbounds nuw %struct.translation_ctx_st, ptr %10, i32 0, i32 2
  %89 = load i32, ptr %88, align 4, !tbaa !38
  %90 = getelementptr inbounds nuw %struct.translation_ctx_st, ptr %10, i32 0, i32 5
  %91 = load i32, ptr %90, align 4, !tbaa !39
  %92 = getelementptr inbounds nuw %struct.translation_ctx_st, ptr %10, i32 0, i32 6
  %93 = load ptr, ptr %92, align 8, !tbaa !40
  %94 = call i32 @EVP_PKEY_CTX_ctrl(ptr noundef %85, i32 noundef %86, i32 noundef %87, i32 noundef %89, i32 noundef %91, ptr noundef %93)
  store i32 %94, ptr %14, align 4, !tbaa !8
  br label %95

95:                                               ; preds = %84, %80, %70
  %96 = load i32, ptr %14, align 4, !tbaa !8
  %97 = icmp sge i32 %96, 0
  br i1 %97, label %98, label %106

98:                                               ; preds = %95
  %99 = load i32, ptr %14, align 4, !tbaa !8
  %100 = getelementptr inbounds nuw %struct.translation_ctx_st, ptr %10, i32 0, i32 5
  store i32 %99, ptr %100, align 4, !tbaa !39
  %101 = load ptr, ptr %13, align 8, !tbaa !10
  %102 = load ptr, ptr %12, align 8, !tbaa !11
  %103 = call i32 %101(i32 noundef 8, ptr noundef %102, ptr noundef %10)
  %104 = getelementptr inbounds nuw %struct.translation_ctx_st, ptr %10, i32 0, i32 5
  %105 = load i32, ptr %104, align 4, !tbaa !39
  store i32 %105, ptr %14, align 4, !tbaa !8
  br label %106

106:                                              ; preds = %98, %95
  %107 = load ptr, ptr %12, align 8, !tbaa !11
  %108 = call i32 @cleanup_translation_ctx(i32 noundef 9, ptr noundef %107, ptr noundef %10)
  %109 = load i32, ptr %14, align 4, !tbaa !8
  %110 = icmp sle i32 %109, 0
  br i1 %110, label %111, label %112

111:                                              ; preds = %106
  store i32 0, ptr %4, align 4
  store i32 1, ptr %15, align 4
  br label %113

112:                                              ; preds = %106
  store i32 0, ptr %15, align 4
  br label %113

113:                                              ; preds = %112, %111
  call void @llvm.lifetime.end.p0(i64 4, ptr %14) #9
  call void @llvm.lifetime.end.p0(i64 8, ptr %13) #9
  call void @llvm.lifetime.end.p0(i64 8, ptr %12) #9
  call void @llvm.lifetime.end.p0(i64 64, ptr %11) #9
  call void @llvm.lifetime.end.p0(i64 144, ptr %10) #9
  %114 = load i32, ptr %15, align 4
  switch i32 %114, label %120 [
    i32 0, label %115
  ]

115:                                              ; preds = %113
  br label %116

116:                                              ; preds = %115
  %117 = load ptr, ptr %7, align 8, !tbaa !57
  %118 = getelementptr inbounds nuw %struct.ossl_param_st, ptr %117, i32 1
  store ptr %118, ptr %7, align 8, !tbaa !57
  br label %30, !llvm.loop !66

119:                                              ; preds = %38
  store i32 1, ptr %4, align 4
  store i32 1, ptr %15, align 4
  br label %120

120:                                              ; preds = %119, %113
  call void @llvm.lifetime.end.p0(i64 4, ptr %9) #9
  call void @llvm.lifetime.end.p0(i64 4, ptr %8) #9
  %121 = load i32, ptr %4, align 4
  ret i32 %121
}