; Function Attrs: nounwind uwtable
define internal fastcc range(i32 0, 2) i32 @evp_pkey_ctx_setget_params_to_ctrl(ptr noundef %0, i32 noundef range(i32 1, 3) %1, ptr noundef %2) unnamed_addr #0 {
  %4 = alloca %struct.translation_ctx_st, align 8
  %5 = alloca %struct.translation_st, align 8
  %6 = getelementptr inbounds nuw i8, ptr %0, i64 116
  %7 = load i32, ptr %6, align 4, !tbaa !3
  %8 = load i32, ptr %0, align 8, !tbaa !39
  %9 = icmp eq i32 %8, 0
  %spec.select = select i1 %9, i32 -1, i32 %8
  %.not47 = icmp eq ptr %2, null
  br i1 %.not47, label %.critedge, label %.lr.ph

.lr.ph:                                           ; preds = %3
  %10 = getelementptr inbounds nuw i8, ptr %4, i64 8
  %11 = getelementptr inbounds nuw i8, ptr %5, i64 8
  %12 = getelementptr inbounds nuw i8, ptr %5, i64 4
  %13 = getelementptr inbounds nuw i8, ptr %5, i64 12
  %14 = getelementptr inbounds nuw i8, ptr %5, i64 40
  %15 = getelementptr inbounds nuw i8, ptr %4, i64 12
  %16 = getelementptr inbounds nuw i8, ptr %4, i64 48
  %17 = getelementptr inbounds nuw i8, ptr %4, i64 28
  %18 = getelementptr inbounds nuw i8, ptr %4, i64 32
  %19 = getelementptr inbounds nuw i8, ptr %4, i64 120
  %20 = getelementptr inbounds nuw i8, ptr %5, i64 16
  %21 = load ptr, ptr %2, align 8, !tbaa !60
  %.not4052 = icmp eq ptr %21, null
  br i1 %.not4052, label %.critedge, label %.lr.ph54

22:                                               ; preds = %cleanup_translation_ctx.exit
  %23 = getelementptr inbounds nuw i8, ptr %.0364853, i64 40
  %24 = load ptr, ptr %23, align 8, !tbaa !60
  %.not40 = icmp eq ptr %24, null
  br i1 %.not40, label %.critedge, label %.lr.ph54

.lr.ph54:                                         ; preds = %.lr.ph, %22
  %25 = phi ptr [ %24, %22 ], [ %21, %.lr.ph ]
  %.0364853 = phi ptr [ %23, %22 ], [ %2, %.lr.ph ]
  call void @llvm.lifetime.start.p0(i64 144, ptr nonnull %4) #8
  call void @llvm.memset.p0.i64(ptr noundef nonnull align 8 dereferenceable(144) %4, i8 0, i64 144, i1 false)
  call void @llvm.lifetime.start.p0(i64 64, ptr nonnull %5) #8
  call void @llvm.memset.p0.i64(ptr noundef nonnull align 8 dereferenceable(64) %20, i8 0, i64 48, i1 false)
  store i32 %1, ptr %5, align 8, !tbaa !28
  store i32 %1, ptr %10, align 8, !tbaa !29
  store i32 %7, ptr %11, align 8, !tbaa !21
  store i32 %7, ptr %12, align 4, !tbaa !22
  store i32 %spec.select, ptr %13, align 4, !tbaa !23
  store ptr %25, ptr %14, align 8, !tbaa !42
  %26 = call fastcc ptr @lookup_translation(ptr noundef nonnull %5, ptr noundef nonnull @evp_pkey_ctx_translations, i64 noundef 86)
  %.not41 = icmp eq ptr %26, null
  br i1 %.not41, label %32, label %27

27:                                               ; preds = %.lr.ph54
  %28 = getelementptr inbounds nuw i8, ptr %26, i64 56
  %29 = load ptr, ptr %28, align 8, !tbaa !27
  %.not42 = icmp eq ptr %29, null
  %spec.select43 = select i1 %.not42, ptr @default_fixup_args, ptr %29
  %30 = getelementptr inbounds nuw i8, ptr %26, i64 16
  %31 = load i32, ptr %30, align 8, !tbaa !19
  store i32 %31, ptr %15, align 4, !tbaa !33
  br label %32

32:                                               ; preds = %27, %.lr.ph54
  %.032 = phi ptr [ %spec.select43, %27 ], [ @default_fixup_args, %.lr.ph54 ]
  store ptr %0, ptr %4, align 8, !tbaa !36
  store ptr %.0364853, ptr %16, align 8, !tbaa !37
  %33 = call i32 %.032(i32 noundef 7, ptr noundef %26, ptr noundef nonnull %4) #8
  %34 = icmp sgt i32 %33, 0
  %35 = load i32, ptr %10, align 8
  %36 = icmp ne i32 %35, 0
  %or.cond = select i1 %34, i1 %36, i1 false
  br i1 %or.cond, label %37, label %42

37:                                               ; preds = %32
  %38 = load i32, ptr %15, align 4, !tbaa !33
  %39 = load i32, ptr %17, align 4, !tbaa !34
  %40 = load ptr, ptr %18, align 8, !tbaa !35
  %41 = call i32 @EVP_PKEY_CTX_ctrl(ptr noundef nonnull %0, i32 noundef %7, i32 noundef %spec.select, i32 noundef %38, i32 noundef %39, ptr noundef %40) #8
  br label %42

42:                                               ; preds = %37, %32
  %.031 = phi i32 [ %41, %37 ], [ %33, %32 ]
  %43 = icmp sgt i32 %.031, -1
  br i1 %43, label %44, label %.critedge.critedge

44:                                               ; preds = %42
  store i32 %.031, ptr %17, align 4, !tbaa !34
  %45 = call i32 %.032(i32 noundef 8, ptr noundef %26, ptr noundef nonnull %4) #8
  %46 = load i32, ptr %17, align 4, !tbaa !34
  %47 = icmp slt i32 %46, 1
  %48 = load ptr, ptr %19, align 8, !tbaa !38
  %.not.i = icmp eq ptr %48, null
  br i1 %.not.i, label %cleanup_translation_ctx.exit, label %49

49:                                               ; preds = %44
  call void @CRYPTO_free(ptr noundef nonnull %48, ptr noundef nonnull @.str, i32 noundef 713) #8
  br label %cleanup_translation_ctx.exit

cleanup_translation_ctx.exit:                     ; preds = %44, %49
  call void @llvm.lifetime.end.p0(i64 64, ptr nonnull %5) #8
  call void @llvm.lifetime.end.p0(i64 144, ptr nonnull %4) #8
  br i1 %47, label %.critedge, label %22

.critedge.critedge:                               ; preds = %42
  %50 = load ptr, ptr %19, align 8, !tbaa !38
  %.not.i45 = icmp eq ptr %50, null
  br i1 %.not.i45, label %cleanup_translation_ctx.exit46, label %51

51:                                               ; preds = %.critedge.critedge
  call void @CRYPTO_free(ptr noundef nonnull %50, ptr noundef nonnull @.str, i32 noundef 713) #8
  br label %cleanup_translation_ctx.exit46

cleanup_translation_ctx.exit46:                   ; preds = %.critedge.critedge, %51
  call void @llvm.lifetime.end.p0(i64 64, ptr nonnull %5) #8
  call void @llvm.lifetime.end.p0(i64 144, ptr nonnull %4) #8
  br label %.critedge

.critedge:                                        ; preds = %22, %cleanup_translation_ctx.exit, %.lr.ph, %3, %cleanup_translation_ctx.exit46
  %.2 = phi i32 [ 0, %cleanup_translation_ctx.exit46 ], [ 1, %3 ], [ 1, %.lr.ph ], [ 0, %cleanup_translation_ctx.exit ], [ 1, %22 ]
  ret i32 %.2
}